	.file	"example24.c"
	.text
	.globl	goo
	.type	goo, @function
goo:
.LFB0:
	.cfi_startproc
	pushq	%rbp
	.cfi_def_cfa_offset 16
	.cfi_offset 6, -16
	movq	%rsp, %rbp
	.cfi_def_cfa_register 6
	movq	%rdi, -40(%rbp)
	movq	%rsi, -48(%rbp)
	movq	-40(%rbp), %rdx
	movq	%rdx, %rax
	salq	$2, %rax
	addq	%rdx, %rax
	movq	%rax, -8(%rbp)
	movq	-48(%rbp), %rax
	cqto
	idivq	-8(%rbp)
	movq	%rax, -16(%rbp)
	movq	-8(%rbp), %rax
	cqto
	idivq	-16(%rbp)
	movq	%rax, -24(%rbp)
	movq	-24(%rbp), %rdx
	movq	%rdx, %rax
	salq	$2, %rax
	addq	%rdx, %rax
	movq	%rax, -32(%rbp)
	movq	-32(%rbp), %rax
	popq	%rbp
	.cfi_def_cfa 7, 8
	ret
	.cfi_endproc
.LFE0:
	.size	goo, .-goo
	.globl	boo
	.type	boo, @function
boo:
.LFB1:
	.cfi_startproc
	pushq	%rbp
	.cfi_def_cfa_offset 16
	.cfi_offset 6, -16
	movq	%rsp, %rbp
	.cfi_def_cfa_register 6
	subq	$56, %rsp
	movq	%rdi, -40(%rbp)
	movq	%rsi, -48(%rbp)
	movq	%rdx, -56(%rbp)
	movq	-40(%rbp), %rdx
	movq	%rdx, %rax
	salq	$2, %rax
	addq	%rdx, %rax
	movq	%rax, -8(%rbp)
	movq	-48(%rbp), %rax
	cqto
	idivq	-56(%rbp)
	movq	%rax, -16(%rbp)
	movq	-8(%rbp), %rax
	movq	%rax, %rdx
	shrq	$63, %rdx
	addq	%rdx, %rax
	sarq	%rax
	movq	%rax, -24(%rbp)
	movq	-16(%rbp), %rdx
	movq	-8(%rbp), %rax
	movq	%rdx, %rsi
	movq	%rax, %rdi
	call	goo
	movq	%rax, -32(%rbp)
	movq	-32(%rbp), %rax
	leave
	.cfi_def_cfa 7, 8
	ret
	.cfi_endproc
.LFE1:
	.size	boo, .-boo
	.globl	bar
	.type	bar, @function
bar:
.LFB2:
	.cfi_startproc
	pushq	%rbp
	.cfi_def_cfa_offset 16
	.cfi_offset 6, -16
	movq	%rsp, %rbp
	.cfi_def_cfa_register 6
	subq	$40, %rsp
	movq	%rdi, -24(%rbp)
	movq	%rsi, -32(%rbp)
	movq	%rdx, -40(%rbp)
	movq	-40(%rbp), %rdx
	movq	-32(%rbp), %rcx
	movq	-24(%rbp), %rax
	movq	%rcx, %rsi
	movq	%rax, %rdi
	call	boo
	movq	%rax, -8(%rbp)
	movq	-8(%rbp), %rax
	leave
	.cfi_def_cfa 7, 8
	ret
	.cfi_endproc
.LFE2:
	.size	bar, .-bar
	.globl	foo
	.type	foo, @function
foo:
.LFB3:
	.cfi_startproc
	pushq	%rbp
	.cfi_def_cfa_offset 16
	.cfi_offset 6, -16
	movq	%rsp, %rbp
	.cfi_def_cfa_register 6
	subq	$32, %rsp
	movq	%rdi, -24(%rbp)
	movq	%rsi, -32(%rbp)
	movq	-24(%rbp), %rdx
	movq	-32(%rbp), %rcx
	movq	-24(%rbp), %rax
	movq	%rcx, %rsi
	movq	%rax, %rdi
	call	bar
	movq	%rax, -8(%rbp)
	movq	-8(%rbp), %rax
	leave
	.cfi_def_cfa 7, 8
	ret
	.cfi_endproc
.LFE3:
	.size	foo, .-foo
	.ident	"GCC: (GNU) 11.2.1 20210728 (Red Hat 11.2.1-1)"
	.section	.note.GNU-stack,"",@progbits
